; Function Attrs: nounwind uwtable
define hidden i64 @mi_option_get_clamp(i32 noundef %0, i64 noundef %1, i64 noundef %2) local_unnamed_addr #1 {
  %4 = icmp ugt i32 %0, 35
  br i1 %4, label %mi_option_get.exit, label %5

5:                                                ; preds = %3
  %6 = zext nneg i32 %0 to i64
  %7 = getelementptr inbounds nuw [36 x %struct.mi_option_desc_s], ptr @options, i64 0, i64 %6
  %8 = getelementptr inbounds nuw i8, ptr %7, i64 8
  %9 = load i32, ptr %8, align 8, !tbaa !8
  %10 = icmp eq i32 %9, 0
  br i1 %10, label %11, label %12, !prof !13

11:                                               ; preds = %5
  tail call fastcc void @mi_option_init(ptr noundef nonnull %7) #17
  br label %12

12:                                               ; preds = %11, %5
  %13 = load i64, ptr %7, align 16, !tbaa !14
  br label %mi_option_get.exit

mi_option_get.exit:                               ; preds = %3, %12
  %.0.i = phi i64 [ %13, %12 ], [ 0, %3 ]
  %14 = icmp slt i64 %.0.i, %1
  %15 = tail call i64 @llvm.smin.i64(i64 %.0.i, i64 %2)
  %16 = select i1 %14, i64 %1, i64 %15
  ret i64 %16
}